target datalayout = "e-m:e-p270:32:32-p271:32:32-p272:64:64-i64:64-i128:128-f80:128-n8:16:32:64-S128"
target triple = "x86_64-pc-linux-gnu"

%struct.GetBitContext = type { ptr, ptr, i32, i32, i32 }

@ff_golomb_vlc_len = external constant [512 x i8], align 16
@ff_zigzag_scan = external constant [17 x i8], align 16
@ff_zigzag_direct = external constant [64 x i8], align 16
@.str.40 = private unnamed_addr constant [27 x i8] c"delta scale %d is invalid\0A\00", align 1
@ff_log2_tab = external constant [256 x i8], align 16
@ff_se_golomb_vlc_code = external constant [512 x i8], align 16

; Function Attrs: alwaysinline nounwind willreturn memory(none) uwtable
define internal i32 @ff_log2_c(i32 noundef %0) #7 {
  %2 = alloca i32, align 4
  %3 = alloca i32, align 4
  store i32 %0, ptr %2, align 4, !tbaa !9
  call void @llvm.lifetime.start.p0(i64 4, ptr %3) #8
  store i32 0, ptr %3, align 4, !tbaa !9
  %4 = load i32, ptr %2, align 4, !tbaa !9
  %5 = and i32 %4, -65536
  %6 = icmp ne i32 %5, 0
  br i1 %6, label %7, label %12

7:                                                ; preds = %1
  %8 = load i32, ptr %2, align 4, !tbaa !9
  %9 = lshr i32 %8, 16
  store i32 %9, ptr %2, align 4, !tbaa !9
  %10 = load i32, ptr %3, align 4, !tbaa !9
  %11 = add nsw i32 %10, 16
  store i32 %11, ptr %3, align 4, !tbaa !9
  br label %12

12:                                               ; preds = %7, %1
  %13 = load i32, ptr %2, align 4, !tbaa !9
  %14 = and i32 %13, 65280
  %15 = icmp ne i32 %14, 0
  br i1 %15, label %16, label %21

16:                                               ; preds = %12
  %17 = load i32, ptr %2, align 4, !tbaa !9
  %18 = lshr i32 %17, 8
  store i32 %18, ptr %2, align 4, !tbaa !9
  %19 = load i32, ptr %3, align 4, !tbaa !9
  %20 = add nsw i32 %19, 8
  store i32 %20, ptr %3, align 4, !tbaa !9
  br label %21

21:                                               ; preds = %16, %12
  %22 = load i32, ptr %2, align 4, !tbaa !9
  %23 = zext i32 %22 to i64
  %24 = getelementptr inbounds nuw [256 x i8], ptr @ff_log2_tab, i64 0, i64 %23
  %25 = load i8, ptr %24, align 1, !tbaa !34
  %26 = zext i8 %25 to i32
  %27 = load i32, ptr %3, align 4, !tbaa !9
  %28 = add nsw i32 %27, %26
  store i32 %28, ptr %3, align 4, !tbaa !9
  %29 = load i32, ptr %3, align 4, !tbaa !9
  call void @llvm.lifetime.end.p0(i64 4, ptr %3) #8
  ret i32 %29
}

; Function Attrs: alwaysinline nounwind willreturn memory(none) uwtable
define internal i32 @av_bswap32(i32 noundef %0) #7 {
  %2 = alloca i32, align 4
  store i32 %0, ptr %2, align 4, !tbaa !9
  %3 = load i32, ptr %2, align 4, !tbaa !9
  %4 = shl i32 %3, 8
  %5 = and i32 %4, 65280
  %6 = load i32, ptr %2, align 4, !tbaa !9
  %7 = lshr i32 %6, 8
  %8 = and i32 %7, 255
  %9 = or i32 %5, %8
  %10 = shl i32 %9, 16
  %11 = load i32, ptr %2, align 4, !tbaa !9
  %12 = lshr i32 %11, 16
  %13 = shl i32 %12, 8
  %14 = and i32 %13, 65280
  %15 = load i32, ptr %2, align 4, !tbaa !9
  %16 = lshr i32 %15, 16
  %17 = lshr i32 %16, 8
  %18 = and i32 %17, 255
  %19 = or i32 %14, %18
  %20 = or i32 %10, %19
  ret i32 %20
}

; Function Attrs: inlinehint nounwind uwtable
define internal i32 @get_se_golomb(ptr noundef %0) #3 {
  %2 = alloca i32, align 4
  %3 = alloca ptr, align 8
  %4 = alloca i32, align 4
  %5 = alloca i32, align 4
  %6 = alloca i32, align 4
  %7 = alloca i32, align 4
  %8 = alloca i32, align 4
  %9 = alloca i32, align 4
  %10 = alloca i32, align 4
  store ptr %0, ptr %3, align 8, !tbaa !18
  call void @llvm.lifetime.start.p0(i64 4, ptr %4) #8
  call void @llvm.lifetime.start.p0(i64 4, ptr %5) #8
  %11 = load ptr, ptr %3, align 8, !tbaa !18
  %12 = getelementptr inbounds nuw %struct.GetBitContext, ptr %11, i32 0, i32 2
  %13 = load i32, ptr %12, align 8, !tbaa !96
  store i32 %13, ptr %5, align 4, !tbaa !9
  call void @llvm.lifetime.start.p0(i64 4, ptr %6) #8
  call void @llvm.lifetime.start.p0(i64 4, ptr %7) #8
  %14 = load ptr, ptr %3, align 8, !tbaa !18
  %15 = getelementptr inbounds nuw %struct.GetBitContext, ptr %14, i32 0, i32 4
  %16 = load i32, ptr %15, align 8, !tbaa !97
  store i32 %16, ptr %7, align 4, !tbaa !9
  %17 = load ptr, ptr %3, align 8, !tbaa !18
  %18 = getelementptr inbounds nuw %struct.GetBitContext, ptr %17, i32 0, i32 0
  %19 = load ptr, ptr %18, align 8, !tbaa !26
  %20 = load i32, ptr %5, align 4, !tbaa !9
  %21 = lshr i32 %20, 3
  %22 = zext i32 %21 to i64
  %23 = getelementptr inbounds nuw i8, ptr %19, i64 %22
  %24 = load i32, ptr %23, align 1, !tbaa !34
  %25 = call i32 @av_bswap32(i32 noundef %24) #10
  %26 = load i32, ptr %5, align 4, !tbaa !9
  %27 = and i32 %26, 7
  %28 = shl i32 %25, %27
  %29 = lshr i32 %28, 0
  store i32 %29, ptr %6, align 4, !tbaa !9
  %30 = load i32, ptr %6, align 4, !tbaa !9
  store i32 %30, ptr %4, align 4, !tbaa !9
  %31 = load i32, ptr %4, align 4, !tbaa !9
  %32 = icmp uge i32 %31, 134217728
  br i1 %32, label %33, label %65

33:                                               ; preds = %1
  %34 = load i32, ptr %4, align 4, !tbaa !9
  %35 = lshr i32 %34, 23
  store i32 %35, ptr %4, align 4, !tbaa !9
  %36 = load i32, ptr %7, align 4, !tbaa !9
  %37 = load i32, ptr %5, align 4, !tbaa !9
  %38 = load i32, ptr %4, align 4, !tbaa !9
  %39 = zext i32 %38 to i64
  %40 = getelementptr inbounds nuw [512 x i8], ptr @ff_golomb_vlc_len, i64 0, i64 %39
  %41 = load i8, ptr %40, align 1, !tbaa !34
  %42 = zext i8 %41 to i32
  %43 = add i32 %37, %42
  %44 = icmp ugt i32 %36, %43
  br i1 %44, label %45, label %53

45:                                               ; preds = %33
  %46 = load i32, ptr %5, align 4, !tbaa !9
  %47 = load i32, ptr %4, align 4, !tbaa !9
  %48 = zext i32 %47 to i64
  %49 = getelementptr inbounds nuw [512 x i8], ptr @ff_golomb_vlc_len, i64 0, i64 %48
  %50 = load i8, ptr %49, align 1, !tbaa !34
  %51 = zext i8 %50 to i32
  %52 = add i32 %46, %51
  br label %55

53:                                               ; preds = %33
  %54 = load i32, ptr %7, align 4, !tbaa !9
  br label %55

55:                                               ; preds = %53, %45
  %56 = phi i32 [ %52, %45 ], [ %54, %53 ]
  store i32 %56, ptr %5, align 4, !tbaa !9
  %57 = load i32, ptr %5, align 4, !tbaa !9
  %58 = load ptr, ptr %3, align 8, !tbaa !18
  %59 = getelementptr inbounds nuw %struct.GetBitContext, ptr %58, i32 0, i32 2
  store i32 %57, ptr %59, align 8, !tbaa !96
  %60 = load i32, ptr %4, align 4, !tbaa !9
  %61 = zext i32 %60 to i64
  %62 = getelementptr inbounds nuw [512 x i8], ptr @ff_se_golomb_vlc_code, i64 0, i64 %61
  %63 = load i8, ptr %62, align 1, !tbaa !34
  %64 = sext i8 %63 to i32
  store i32 %64, ptr %2, align 4
  store i32 1, ptr %8, align 4
  br label %128

65:                                               ; preds = %1
  call void @llvm.lifetime.start.p0(i64 4, ptr %9) #8
  %66 = load i32, ptr %4, align 4, !tbaa !9
  %67 = call i32 @ff_log2_c(i32 noundef %66) #10
  store i32 %67, ptr %9, align 4, !tbaa !9
  call void @llvm.lifetime.start.p0(i64 4, ptr %10) #8
  %68 = load i32, ptr %7, align 4, !tbaa !9
  %69 = load i32, ptr %5, align 4, !tbaa !9
  %70 = load i32, ptr %9, align 4, !tbaa !9
  %71 = sub nsw i32 31, %70
  %72 = add i32 %69, %71
  %73 = icmp ugt i32 %68, %72
  br i1 %73, label %74, label %79

74:                                               ; preds = %65
  %75 = load i32, ptr %5, align 4, !tbaa !9
  %76 = load i32, ptr %9, align 4, !tbaa !9
  %77 = sub nsw i32 31, %76
  %78 = add i32 %75, %77
  br label %81

79:                                               ; preds = %65
  %80 = load i32, ptr %7, align 4, !tbaa !9
  br label %81

81:                                               ; preds = %79, %74
  %82 = phi i32 [ %78, %74 ], [ %80, %79 ]
  store i32 %82, ptr %5, align 4, !tbaa !9
  %83 = load ptr, ptr %3, align 8, !tbaa !18
  %84 = getelementptr inbounds nuw %struct.GetBitContext, ptr %83, i32 0, i32 0
  %85 = load ptr, ptr %84, align 8, !tbaa !26
  %86 = load i32, ptr %5, align 4, !tbaa !9
  %87 = lshr i32 %86, 3
  %88 = zext i32 %87 to i64
  %89 = getelementptr inbounds nuw i8, ptr %85, i64 %88
  %90 = load i32, ptr %89, align 1, !tbaa !34
  %91 = call i32 @av_bswap32(i32 noundef %90) #10
  %92 = load i32, ptr %5, align 4, !tbaa !9
  %93 = and i32 %92, 7
  %94 = shl i32 %91, %93
  %95 = lshr i32 %94, 0
  store i32 %95, ptr %6, align 4, !tbaa !9
  %96 = load i32, ptr %6, align 4, !tbaa !9
  store i32 %96, ptr %4, align 4, !tbaa !9
  %97 = load i32, ptr %9, align 4, !tbaa !9
  %98 = load i32, ptr %4, align 4, !tbaa !9
  %99 = lshr i32 %98, %97
  store i32 %99, ptr %4, align 4, !tbaa !9
  %100 = load i32, ptr %7, align 4, !tbaa !9
  %101 = load i32, ptr %5, align 4, !tbaa !9
  %102 = load i32, ptr %9, align 4, !tbaa !9
  %103 = sub nsw i32 32, %102
  %104 = add i32 %101, %103
  %105 = icmp ugt i32 %100, %104
  br i1 %105, label %106, label %111

106:                                              ; preds = %81
  %107 = load i32, ptr %5, align 4, !tbaa !9
  %108 = load i32, ptr %9, align 4, !tbaa !9
  %109 = sub nsw i32 32, %108
  %110 = add i32 %107, %109
  br label %113

111:                                              ; preds = %81
  %112 = load i32, ptr %7, align 4, !tbaa !9
  br label %113

113:                                              ; preds = %111, %106
  %114 = phi i32 [ %110, %106 ], [ %112, %111 ]
  store i32 %114, ptr %5, align 4, !tbaa !9
  %115 = load i32, ptr %5, align 4, !tbaa !9
  %116 = load ptr, ptr %3, align 8, !tbaa !18
  %117 = getelementptr inbounds nuw %struct.GetBitContext, ptr %116, i32 0, i32 2
  store i32 %115, ptr %117, align 8, !tbaa !96
  %118 = load i32, ptr %4, align 4, !tbaa !9
  %119 = and i32 %118, 1
  %120 = sub i32 0, %119
  store i32 %120, ptr %10, align 4, !tbaa !9
  %121 = load i32, ptr %4, align 4, !tbaa !9
  %122 = lshr i32 %121, 1
  %123 = load i32, ptr %10, align 4, !tbaa !9
  %124 = xor i32 %122, %123
  %125 = load i32, ptr %10, align 4, !tbaa !9
  %126 = sub i32 %124, %125
  store i32 %126, ptr %4, align 4, !tbaa !9
  %127 = load i32, ptr %4, align 4, !tbaa !9
  store i32 %127, ptr %2, align 4
  store i32 1, ptr %8, align 4
  call void @llvm.lifetime.end.p0(i64 4, ptr %10) #8
  call void @llvm.lifetime.end.p0(i64 4, ptr %9) #8
  br label %128

128:                                              ; preds = %113, %55
  call void @llvm.lifetime.end.p0(i64 4, ptr %7) #8
  call void @llvm.lifetime.end.p0(i64 4, ptr %6) #8
  call void @llvm.lifetime.end.p0(i64 4, ptr %5) #8
  call void @llvm.lifetime.end.p0(i64 4, ptr %4) #8
  %129 = load i32, ptr %2, align 4
  ret i32 %129
}

; Function Attrs: inlinehint nounwind uwtable
define internal i32 @get_bits1(ptr noundef %0) #3 {
  %2 = alloca ptr, align 8
  %3 = alloca i32, align 4
  %4 = alloca i8, align 1
  store ptr %0, ptr %2, align 8, !tbaa !18
  call void @llvm.lifetime.start.p0(i64 4, ptr %3) #8
  %5 = load ptr, ptr %2, align 8, !tbaa !18
  %6 = getelementptr inbounds nuw %struct.GetBitContext, ptr %5, i32 0, i32 2
  %7 = load i32, ptr %6, align 8, !tbaa !96
  store i32 %7, ptr %3, align 4, !tbaa !9
  call void @llvm.lifetime.start.p0(i64 1, ptr %4) #8
  %8 = load ptr, ptr %2, align 8, !tbaa !18
  %9 = getelementptr inbounds nuw %struct.GetBitContext, ptr %8, i32 0, i32 0
  %10 = load ptr, ptr %9, align 8, !tbaa !26
  %11 = load i32, ptr %3, align 4, !tbaa !9
  %12 = lshr i32 %11, 3
  %13 = zext i32 %12 to i64
  %14 = getelementptr inbounds nuw i8, ptr %10, i64 %13
  %15 = load i8, ptr %14, align 1, !tbaa !34
  store i8 %15, ptr %4, align 1, !tbaa !34
  %16 = load i32, ptr %3, align 4, !tbaa !9
  %17 = and i32 %16, 7
  %18 = load i8, ptr %4, align 1, !tbaa !34
  %19 = zext i8 %18 to i32
  %20 = shl i32 %19, %17
  %21 = trunc i32 %20 to i8
  store i8 %21, ptr %4, align 1, !tbaa !34
  %22 = load i8, ptr %4, align 1, !tbaa !34
  %23 = zext i8 %22 to i32
  %24 = ashr i32 %23, 7
  %25 = trunc i32 %24 to i8
  store i8 %25, ptr %4, align 1, !tbaa !34
  %26 = load ptr, ptr %2, align 8, !tbaa !18
  %27 = getelementptr inbounds nuw %struct.GetBitContext, ptr %26, i32 0, i32 2
  %28 = load i32, ptr %27, align 8, !tbaa !96
  %29 = load ptr, ptr %2, align 8, !tbaa !18
  %30 = getelementptr inbounds nuw %struct.GetBitContext, ptr %29, i32 0, i32 4
  %31 = load i32, ptr %30, align 8, !tbaa !97
  %32 = icmp slt i32 %28, %31
  br i1 %32, label %33, label %36

33:                                               ; preds = %1
  %34 = load i32, ptr %3, align 4, !tbaa !9
  %35 = add i32 %34, 1
  store i32 %35, ptr %3, align 4, !tbaa !9
  br label %36

36:                                               ; preds = %33, %1
  %37 = load i32, ptr %3, align 4, !tbaa !9
  %38 = load ptr, ptr %2, align 8, !tbaa !18
  %39 = getelementptr inbounds nuw %struct.GetBitContext, ptr %38, i32 0, i32 2
  store i32 %37, ptr %39, align 8, !tbaa !96
  %40 = load i8, ptr %4, align 1, !tbaa !34
  %41 = zext i8 %40 to i32
  call void @llvm.lifetime.end.p0(i64 1, ptr %4) #8
  call void @llvm.lifetime.end.p0(i64 4, ptr %3) #8
  ret i32 %41
}

; Function Attrs: nounwind uwtable
define internal i32 @decode_scaling_list(ptr noundef %0, ptr noundef %1, i32 noundef %2, ptr noundef %3, ptr noundef %4, ptr noundef %5, i32 noundef %6) #0 {
  %8 = alloca i32, align 4
  %9 = alloca ptr, align 8
  %10 = alloca ptr, align 8
  %11 = alloca i32, align 4
  %12 = alloca ptr, align 8
  %13 = alloca ptr, align 8
  %14 = alloca ptr, align 8
  %15 = alloca i32, align 4
  %16 = alloca i32, align 4
  %17 = alloca i32, align 4
  %18 = alloca i32, align 4
  %19 = alloca ptr, align 8
  %20 = alloca i16, align 2
  %21 = alloca i32, align 4
  %22 = alloca i32, align 4
  store ptr %0, ptr %9, align 8, !tbaa !18
  store ptr %1, ptr %10, align 8, !tbaa !100
  store i32 %2, ptr %11, align 4, !tbaa !9
  store ptr %3, ptr %12, align 8, !tbaa !100
  store ptr %4, ptr %13, align 8, !tbaa !100
  store ptr %5, ptr %14, align 8, !tbaa !99
  store i32 %6, ptr %15, align 4, !tbaa !9
  call void @llvm.lifetime.start.p0(i64 4, ptr %16) #8
  call void @llvm.lifetime.start.p0(i64 4, ptr %17) #8
  store i32 8, ptr %17, align 4, !tbaa !9
  call void @llvm.lifetime.start.p0(i64 4, ptr %18) #8
  store i32 8, ptr %18, align 4, !tbaa !9
  call void @llvm.lifetime.start.p0(i64 8, ptr %19) #8
  %23 = load i32, ptr %11, align 4, !tbaa !9
  %24 = icmp eq i32 %23, 16
  %25 = select i1 %24, ptr @ff_zigzag_scan, ptr @ff_zigzag_direct
  store ptr %25, ptr %19, align 8, !tbaa !100
  call void @llvm.lifetime.start.p0(i64 2, ptr %20) #8
  %26 = load ptr, ptr %9, align 8, !tbaa !18
  %27 = call i32 @get_bits1(ptr noundef %26)
  %28 = trunc i32 %27 to i16
  store i16 %28, ptr %20, align 2, !tbaa !101
  %29 = load i16, ptr %20, align 2, !tbaa !101
  %30 = zext i16 %29 to i32
  %31 = load i32, ptr %15, align 4, !tbaa !9
  %32 = shl i32 %30, %31
  %33 = load ptr, ptr %14, align 8, !tbaa !99
  %34 = load i16, ptr %33, align 2, !tbaa !101
  %35 = zext i16 %34 to i32
  %36 = or i32 %35, %32
  %37 = trunc i32 %36 to i16
  store i16 %37, ptr %33, align 2, !tbaa !101
  %38 = load i16, ptr %20, align 2, !tbaa !101
  %39 = icmp ne i16 %38, 0
  br i1 %39, label %46, label %40

40:                                               ; preds = %7
  %41 = load ptr, ptr %10, align 8, !tbaa !100
  %42 = load ptr, ptr %13, align 8, !tbaa !100
  %43 = load i32, ptr %11, align 4, !tbaa !9
  %44 = sext i32 %43 to i64
  %45 = mul i64 %44, 1
  call void @llvm.memcpy.p0.p0.i64(ptr align 1 %41, ptr align 1 %42, i64 %45, i1 false)
  br label %107

46:                                               ; preds = %7
  store i32 0, ptr %16, align 4, !tbaa !9
  br label %47

47:                                               ; preds = %103, %46
  %48 = load i32, ptr %16, align 4, !tbaa !9
  %49 = load i32, ptr %11, align 4, !tbaa !9
  %50 = icmp slt i32 %48, %49
  br i1 %50, label %51, label %106

51:                                               ; preds = %47
  %52 = load i32, ptr %18, align 4, !tbaa !9
  %53 = icmp ne i32 %52, 0
  br i1 %53, label %54, label %72

54:                                               ; preds = %51
  call void @llvm.lifetime.start.p0(i64 4, ptr %21) #8
  %55 = load ptr, ptr %9, align 8, !tbaa !18
  %56 = call i32 @get_se_golomb(ptr noundef %55)
  store i32 %56, ptr %21, align 4, !tbaa !9
  %57 = load i32, ptr %21, align 4, !tbaa !9
  %58 = icmp slt i32 %57, -128
  br i1 %58, label %62, label %59

59:                                               ; preds = %54
  %60 = load i32, ptr %21, align 4, !tbaa !9
  %61 = icmp sgt i32 %60, 127
  br i1 %61, label %62, label %64

62:                                               ; preds = %59, %54
  %63 = load i32, ptr %21, align 4, !tbaa !9
  call void (ptr, i32, ptr, ...) @av_log(ptr noundef null, i32 noundef 16, ptr noundef @.str.40, i32 noundef %63)
  store i32 -1094995529, ptr %8, align 4
  store i32 1, ptr %22, align 4
  br label %69

64:                                               ; preds = %59
  %65 = load i32, ptr %17, align 4, !tbaa !9
  %66 = load i32, ptr %21, align 4, !tbaa !9
  %67 = add nsw i32 %65, %66
  %68 = and i32 %67, 255
  store i32 %68, ptr %18, align 4, !tbaa !9
  store i32 0, ptr %22, align 4
  br label %69

69:                                               ; preds = %64, %62
  call void @llvm.lifetime.end.p0(i64 4, ptr %21) #8
  %70 = load i32, ptr %22, align 4
  switch i32 %70, label %108 [
    i32 0, label %71
  ]

71:                                               ; preds = %69
  br label %72

72:                                               ; preds = %71, %51
  %73 = load i32, ptr %16, align 4, !tbaa !9
  %74 = icmp ne i32 %73, 0
  br i1 %74, label %84, label %75

75:                                               ; preds = %72
  %76 = load i32, ptr %18, align 4, !tbaa !9
  %77 = icmp ne i32 %76, 0
  br i1 %77, label %84, label %78

78:                                               ; preds = %75
  %79 = load ptr, ptr %10, align 8, !tbaa !100
  %80 = load ptr, ptr %12, align 8, !tbaa !100
  %81 = load i32, ptr %11, align 4, !tbaa !9
  %82 = sext i32 %81 to i64
  %83 = mul i64 %82, 1
  call void @llvm.memcpy.p0.p0.i64(ptr align 1 %79, ptr align 1 %80, i64 %83, i1 false)
  br label %106

84:                                               ; preds = %75, %72
  %85 = load i32, ptr %18, align 4, !tbaa !9
  %86 = icmp ne i32 %85, 0
  br i1 %86, label %87, label %89

87:                                               ; preds = %84
  %88 = load i32, ptr %18, align 4, !tbaa !9
  br label %91

89:                                               ; preds = %84
  %90 = load i32, ptr %17, align 4, !tbaa !9
  br label %91

91:                                               ; preds = %89, %87
  %92 = phi i32 [ %88, %87 ], [ %90, %89 ]
  %93 = trunc i32 %92 to i8
  %94 = load ptr, ptr %10, align 8, !tbaa !100
  %95 = load ptr, ptr %19, align 8, !tbaa !100
  %96 = load i32, ptr %16, align 4, !tbaa !9
  %97 = sext i32 %96 to i64
  %98 = getelementptr inbounds i8, ptr %95, i64 %97
  %99 = load i8, ptr %98, align 1, !tbaa !34
  %100 = zext i8 %99 to i64
  %101 = getelementptr inbounds nuw i8, ptr %94, i64 %100
  store i8 %93, ptr %101, align 1, !tbaa !34
  %102 = zext i8 %93 to i32
  store i32 %102, ptr %17, align 4, !tbaa !9
  br label %103

103:                                              ; preds = %91
  %104 = load i32, ptr %16, align 4, !tbaa !9
  %105 = add nsw i32 %104, 1
  store i32 %105, ptr %16, align 4, !tbaa !9
  br label %47, !llvm.loop !133

106:                                              ; preds = %78, %47
  br label %107

107:                                              ; preds = %106, %40
  store i32 0, ptr %8, align 4
  store i32 1, ptr %22, align 4
  br label %108

108:                                              ; preds = %107, %69
  call void @llvm.lifetime.end.p0(i64 2, ptr %20) #8
  call void @llvm.lifetime.end.p0(i64 8, ptr %19) #8
  call void @llvm.lifetime.end.p0(i64 4, ptr %18) #8
  call void @llvm.lifetime.end.p0(i64 4, ptr %17) #8
  call void @llvm.lifetime.end.p0(i64 4, ptr %16) #8
  %109 = load i32, ptr %8, align 4
  ret i32 %109
}