; Function Attrs: nounwind uwtable
define internal fastcc range(i32 -1094995529, 1) i32 @decode_scaling_list(ptr noundef captures(none) %0, ptr noundef writeonly captures(none) %1, i32 noundef range(i32 16, 65) %2, ptr noundef readonly captures(none) %3, ptr noundef readonly captures(none) %4, ptr noundef captures(none) %5, i32 noundef %6) unnamed_addr #0 {
  %8 = icmp eq i32 %2, 16
  %9 = select i1 %8, ptr @ff_zigzag_scan, ptr @ff_zigzag_direct
  %10 = getelementptr inbounds nuw i8, ptr %0, i64 16
  %11 = load i32, ptr %10, align 8, !tbaa !28
  %12 = load ptr, ptr %0, align 8, !tbaa !19
  %13 = lshr i32 %11, 3
  %14 = zext nneg i32 %13 to i64
  %15 = getelementptr inbounds nuw i8, ptr %12, i64 %14
  %16 = load i8, ptr %15, align 1, !tbaa !27
  %17 = getelementptr inbounds nuw i8, ptr %0, i64 24
  %18 = load i32, ptr %17, align 8, !tbaa !29
  %19 = icmp slt i32 %11, %18
  %20 = zext i1 %19 to i32
  %spec.select.i = add i32 %11, %20
  %21 = zext i8 %16 to i32
  %22 = and i32 %11, 7
  %23 = shl nuw nsw i32 %21, %22
  %24 = lshr i32 %23, 7
  store i32 %spec.select.i, ptr %10, align 8, !tbaa !28
  %25 = and i32 %24, 1
  %26 = shl nuw i32 %25, %6
  %27 = load i16, ptr %5, align 2, !tbaa !91
  %28 = trunc i32 %26 to i16
  %29 = or i16 %27, %28
  store i16 %29, ptr %5, align 2, !tbaa !91
  %.not = icmp eq i32 %25, 0
  %30 = zext nneg i32 %2 to i64
  br i1 %.not, label %31, label %.preheader

31:                                               ; preds = %7
  tail call void @llvm.memcpy.p0.p0.i64(ptr noundef nonnull align 1 dereferenceable(1) %1, ptr noundef nonnull align 1 dereferenceable(1) %4, i64 %30, i1 false)
  br label %.loopexit

.preheader:                                       ; preds = %7, %87
  %indvars.iv = phi i64 [ %indvars.iv.next, %87 ], [ 0, %7 ]
  %.03645 = phi i32 [ %88, %87 ], [ 8, %7 ]
  %.03744 = phi i32 [ %.138, %87 ], [ 8, %7 ]
  %.not42 = icmp eq i32 %.03744, 0
  br i1 %.not42, label %83, label %32

32:                                               ; preds = %.preheader
  %33 = load i32, ptr %10, align 8, !tbaa !28
  %34 = load i32, ptr %17, align 8, !tbaa !29
  %35 = load ptr, ptr %0, align 8, !tbaa !19
  %36 = lshr i32 %33, 3
  %37 = zext nneg i32 %36 to i64
  %38 = getelementptr inbounds nuw i8, ptr %35, i64 %37
  %39 = load i32, ptr %38, align 1, !tbaa !27
  %40 = tail call i32 @llvm.bswap.i32(i32 %39)
  %41 = and i32 %33, 7
  %42 = shl i32 %40, %41
  %43 = icmp ugt i32 %42, 134217727
  br i1 %43, label %44, label %54

44:                                               ; preds = %32
  %45 = lshr i32 %42, 23
  %46 = zext nneg i32 %45 to i64
  %47 = getelementptr inbounds nuw [512 x i8], ptr @ff_golomb_vlc_len, i64 0, i64 %46
  %48 = load i8, ptr %47, align 1, !tbaa !27
  %49 = zext i8 %48 to i32
  %50 = add i32 %33, %49
  %..i = tail call i32 @llvm.umin.i32(i32 %34, i32 %50)
  store i32 %..i, ptr %10, align 8, !tbaa !28
  %51 = getelementptr inbounds nuw [512 x i8], ptr @ff_se_golomb_vlc_code, i64 0, i64 %46
  %52 = load i8, ptr %51, align 1, !tbaa !27
  %53 = sext i8 %52 to i32
  br label %get_se_golomb.exit

54:                                               ; preds = %32
  %.not.i.i = icmp samesign ult i32 %42, 65536
  %55 = lshr i32 %42, 16
  %spec.select.i.i = select i1 %.not.i.i, i32 %42, i32 %55
  %spec.select12.i.i = select i1 %.not.i.i, i32 0, i32 16
  %.not11.i.i = icmp samesign ult i32 %spec.select.i.i, 256
  %56 = lshr i32 %spec.select.i.i, 8
  %57 = or disjoint i32 %spec.select12.i.i, 8
  %.110.i.i = select i1 %.not11.i.i, i32 %spec.select.i.i, i32 %56
  %.1.i.i = select i1 %.not11.i.i, i32 %spec.select12.i.i, i32 %57
  %58 = zext nneg i32 %.110.i.i to i64
  %59 = getelementptr inbounds nuw [256 x i8], ptr @ff_log2_tab, i64 0, i64 %58
  %60 = load i8, ptr %59, align 1, !tbaa !27
  %61 = zext i8 %60 to i32
  %62 = add nuw nsw i32 %.1.i.i, %61
  %reass.sub.i = add i32 %33, 31
  %63 = sub i32 %reass.sub.i, %62
  %.50.i = tail call i32 @llvm.umin.i32(i32 %34, i32 %63)
  %64 = lshr i32 %.50.i, 3
  %65 = zext nneg i32 %64 to i64
  %66 = getelementptr inbounds nuw i8, ptr %35, i64 %65
  %67 = load i32, ptr %66, align 1, !tbaa !27
  %68 = tail call i32 @llvm.bswap.i32(i32 %67)
  %69 = and i32 %.50.i, 7
  %70 = shl i32 %68, %69
  %71 = lshr i32 %70, %62
  %reass.sub = sub i32 %.50.i, %62
  %72 = add i32 %reass.sub, 32
  %73 = tail call i32 @llvm.umin.i32(i32 %34, i32 %72)
  store i32 %73, ptr %10, align 8, !tbaa !28
  %74 = and i32 %71, 1
  %75 = sub nsw i32 0, %74
  %76 = lshr i32 %71, 1
  %77 = xor i32 %76, %75
  %78 = add i32 %77, %74
  br label %get_se_golomb.exit

get_se_golomb.exit:                               ; preds = %44, %54
  %.0.i = phi i32 [ %53, %44 ], [ %78, %54 ]
  %79 = add i32 %.0.i, 128
  %or.cond = icmp ult i32 %79, 256
  br i1 %or.cond, label %.thread, label %82

.thread:                                          ; preds = %get_se_golomb.exit
  %80 = add nsw i32 %.0.i, %.03645
  %81 = and i32 %80, 255
  br label %83

82:                                               ; preds = %get_se_golomb.exit
  tail call void (ptr, i32, ptr, ...) @av_log(ptr noundef null, i32 noundef 16, ptr noundef nonnull @.str.40, i32 noundef %.0.i) #11
  br label %.loopexit

83:                                               ; preds = %.thread, %.preheader
  %.138 = phi i32 [ 0, %.preheader ], [ %81, %.thread ]
  %84 = icmp ne i64 %indvars.iv, 0
  %85 = icmp ne i32 %.138, 0
  %or.cond3 = select i1 %84, i1 true, i1 %85
  br i1 %or.cond3, label %87, label %86

86:                                               ; preds = %83
  tail call void @llvm.memcpy.p0.p0.i64(ptr noundef nonnull align 1 dereferenceable(1) %1, ptr noundef nonnull align 1 dereferenceable(1) %3, i64 %30, i1 false)
  br label %.loopexit

87:                                               ; preds = %83
  %88 = select i1 %85, i32 %.138, i32 %.03645
  %89 = trunc nuw i32 %88 to i8
  %90 = getelementptr inbounds nuw i8, ptr %9, i64 %indvars.iv
  %91 = load i8, ptr %90, align 1, !tbaa !27
  %92 = zext i8 %91 to i64
  %93 = getelementptr inbounds nuw i8, ptr %1, i64 %92
  store i8 %89, ptr %93, align 1, !tbaa !27
  %indvars.iv.next = add nuw nsw i64 %indvars.iv, 1
  %exitcond.not = icmp eq i64 %indvars.iv.next, %30
  br i1 %exitcond.not, label %.loopexit, label %.preheader, !llvm.loop !132

.loopexit:                                        ; preds = %87, %82, %31, %86
  %.3 = phi i32 [ -1094995529, %82 ], [ 0, %86 ], [ 0, %31 ], [ 0, %87 ]
  ret i32 %.3
}